target datalayout = "e-m:e-p270:32:32-p271:32:32-p272:64:64-i64:64-i128:128-f80:128-n8:16:32:64-S128"
target triple = "x86_64-unknown-linux-gnu"

%"class.std::basic_string_view" = type { i64, ptr }
%"class.google::protobuf::compiler::cpp::FieldGeneratorBase" = type <{ ptr, ptr, ptr, ptr, %"class.absl::lts_20230802::flat_hash_map", i8, i8, i8, i8, i8, i8, i8, i8, i8, i8, i8, i8, i8, [3 x i8], i32, i8, [3 x i8] }>
%"class.absl::lts_20230802::flat_hash_map" = type { %"class.absl::lts_20230802::container_internal::raw_hash_map" }
%"class.absl::lts_20230802::container_internal::raw_hash_map" = type { %"class.absl::lts_20230802::container_internal::raw_hash_set.28" }
%"class.absl::lts_20230802::container_internal::raw_hash_set.28" = type { %"class.absl::lts_20230802::container_internal::CompressedTuple.29" }
%"class.absl::lts_20230802::container_internal::CompressedTuple.29" = type { %"struct.absl::lts_20230802::container_internal::internal_compressed_tuple::CompressedTupleImpl.30" }
%"struct.absl::lts_20230802::container_internal::internal_compressed_tuple::CompressedTupleImpl.30" = type { %"struct.absl::lts_20230802::container_internal::internal_compressed_tuple::Storage" }
%"struct.absl::lts_20230802::container_internal::internal_compressed_tuple::Storage" = type { %"class.absl::lts_20230802::container_internal::CommonFields" }
%"class.absl::lts_20230802::container_internal::CommonFields" = type { ptr, ptr, i64, %"class.absl::lts_20230802::container_internal::CompressedTuple.10" }
%"class.absl::lts_20230802::container_internal::CompressedTuple.10" = type { %"struct.absl::lts_20230802::container_internal::internal_compressed_tuple::CompressedTupleImpl.11" }
%"struct.absl::lts_20230802::container_internal::internal_compressed_tuple::CompressedTupleImpl.11" = type { %"struct.absl::lts_20230802::container_internal::internal_compressed_tuple::Storage.12" }
%"struct.absl::lts_20230802::container_internal::internal_compressed_tuple::Storage.12" = type { i64 }
%"class.google::protobuf::compiler::cpp::Formatter" = type { ptr, %"class.absl::lts_20230802::flat_hash_map" }
%"class.absl::lts_20230802::Span" = type { ptr, i64 }
%"class.std::allocator.32" = type { i8 }

@.str.36 = private unnamed_addr constant [55 x i8] c"_this->_internal_set_$name$(from._internal_$name$());\0A\00", align 1

; Function Attrs: mustprogress nounwind uwtable
define linkonce_odr hidden void @_ZNSt15__new_allocatorISt4pairIKSt17basic_string_viewIcSt11char_traitsIcEENSt7__cxx1112basic_stringIcS3_SaIcEEEEEC2ERKSB_(ptr noundef nonnull align 1 dereferenceable(1) %this, ptr noundef nonnull align 1 dereferenceable(1) %0) unnamed_addr #5 comdat align 2 {
entry:
  %this.addr = alloca ptr, align 8
  %.addr = alloca ptr, align 8
  store ptr %this, ptr %this.addr, align 8
  store ptr %0, ptr %.addr, align 8
  ret void
}

; Function Attrs: mustprogress nounwind uwtable
define linkonce_odr hidden noundef nonnull align 1 dereferenceable(1) ptr @_ZNKR4absl12lts_2023080218container_internal25internal_compressed_tuple7StorageISaISt4pairIKSt17basic_string_viewIcSt11char_traitsIcEENSt7__cxx1112basic_stringIcS7_SaIcEEEEELm3ELb1EE3getEv(ptr noundef nonnull align 1 dereferenceable(1) %this) #5 comdat align 2 {
entry:
  %this.addr = alloca ptr, align 8
  store ptr %this, ptr %this.addr, align 8
  %this1 = load ptr, ptr %this.addr, align 8
  ret ptr %this1
}

; Function Attrs: mustprogress nounwind uwtable
define linkonce_odr hidden void @_ZNSt15__new_allocatorISt4pairIKSt17basic_string_viewIcSt11char_traitsIcEENSt7__cxx1112basic_stringIcS3_SaIcEEEEED2Ev(ptr noundef nonnull align 1 dereferenceable(1) %this) unnamed_addr #5 comdat align 2 {
entry:
  %this.addr = alloca ptr, align 8
  store ptr %this, ptr %this.addr, align 8
  ret void
}

; Function Attrs: mustprogress nounwind uwtable
define linkonce_odr hidden void @_ZNSaISt4pairIKSt17basic_string_viewIcSt11char_traitsIcEENSt7__cxx1112basic_stringIcS2_SaIcEEEEEC2ERKSA_(ptr noundef nonnull align 1 dereferenceable(1) %this, ptr noundef nonnull align 1 dereferenceable(1) %__a) unnamed_addr #5 comdat align 2 {
entry:
  %this.addr = alloca ptr, align 8
  %__a.addr = alloca ptr, align 8
  store ptr %this, ptr %this.addr, align 8
  store ptr %__a, ptr %__a.addr, align 8
  %this1 = load ptr, ptr %this.addr, align 8
  %0 = load ptr, ptr %__a.addr, align 8
  call void @_ZNSt15__new_allocatorISt4pairIKSt17basic_string_viewIcSt11char_traitsIcEENSt7__cxx1112basic_stringIcS3_SaIcEEEEEC2ERKSB_(ptr noundef nonnull align 1 dereferenceable(1) %this1, ptr noundef nonnull align 1 dereferenceable(1) %0) #3
  ret void
}

; Function Attrs: mustprogress uwtable
define linkonce_odr hidden noundef nonnull align 1 dereferenceable(1) ptr @_ZNKR4absl12lts_2023080218container_internal15CompressedTupleIJNS1_12CommonFieldsENS1_10StringHashENS1_8StringEqESaISt4pairIKSt17basic_string_viewIcSt11char_traitsIcEENSt7__cxx1112basic_stringIcS9_SaIcEEEEEEE3getILi3EEERKNS1_25internal_compressed_tuple4ElemISI_XT_EE4typeEv(ptr noundef nonnull align 8 dereferenceable(32) %this) #4 comdat align 2 {
entry:
  %this.addr = alloca ptr, align 8
  store ptr %this, ptr %this.addr, align 8
  %this1 = load ptr, ptr %this.addr, align 8
  %call = call noundef nonnull align 1 dereferenceable(1) ptr @_ZNKR4absl12lts_2023080218container_internal25internal_compressed_tuple7StorageISaISt4pairIKSt17basic_string_viewIcSt11char_traitsIcEENSt7__cxx1112basic_stringIcS7_SaIcEEEEELm3ELb1EE3getEv(ptr noundef nonnull align 1 dereferenceable(1) %this1)
  ret ptr %call
}

; Function Attrs: mustprogress nounwind uwtable
define linkonce_odr hidden void @_ZNSaISt4pairIKSt17basic_string_viewIcSt11char_traitsIcEENSt7__cxx1112basic_stringIcS2_SaIcEEEEED2Ev(ptr noundef nonnull align 1 dereferenceable(1) %this) unnamed_addr #5 comdat align 2 {
entry:
  %this.addr = alloca ptr, align 8
  store ptr %this, ptr %this.addr, align 8
  %this1 = load ptr, ptr %this.addr, align 8
  call void @_ZNSt15__new_allocatorISt4pairIKSt17basic_string_viewIcSt11char_traitsIcEENSt7__cxx1112basic_stringIcS3_SaIcEEEEED2Ev(ptr noundef nonnull align 1 dereferenceable(1) %this1) #3
  ret void
}

; Function Attrs: mustprogress nounwind uwtable
define linkonce_odr hidden void @_ZNSt16allocator_traitsISaISt4pairIKSt17basic_string_viewIcSt11char_traitsIcEENSt7__cxx1112basic_stringIcS3_SaIcEEEEEE37select_on_container_copy_constructionERKSB_(ptr noalias sret(%"class.std::allocator.32") align 1 %agg.result, ptr noundef nonnull align 1 dereferenceable(1) %__rhs) #5 comdat align 2 {
entry:
  %result.ptr = alloca ptr, align 8
  %__rhs.addr = alloca ptr, align 8
  store ptr %agg.result, ptr %result.ptr, align 8
  store ptr %__rhs, ptr %__rhs.addr, align 8
  %0 = load ptr, ptr %__rhs.addr, align 8
  call void @_ZNSaISt4pairIKSt17basic_string_viewIcSt11char_traitsIcEENSt7__cxx1112basic_stringIcS2_SaIcEEEEEC2ERKSA_(ptr noundef nonnull align 1 dereferenceable(1) %agg.result, ptr noundef nonnull align 1 dereferenceable(1) %0) #3
  ret void
}

; Function Attrs: mustprogress uwtable
define linkonce_odr hidden noundef nonnull align 1 dereferenceable(1) ptr @_ZNK4absl12lts_2023080218container_internal12raw_hash_setINS1_17FlatHashMapPolicyISt17basic_string_viewIcSt11char_traitsIcEENSt7__cxx1112basic_stringIcS6_SaIcEEEEENS1_10StringHashENS1_8StringEqESaISt4pairIKS7_SB_EEE9alloc_refEv(ptr noundef nonnull align 8 dereferenceable(32) %this) #4 comdat align 2 {
entry:
  %this.addr = alloca ptr, align 8
  store ptr %this, ptr %this.addr, align 8
  %this1 = load ptr, ptr %this.addr, align 8
  %settings_ = getelementptr inbounds %"class.absl::lts_20230802::container_internal::raw_hash_set.28", ptr %this1, i32 0, i32 0
  %call = call noundef nonnull align 1 dereferenceable(1) ptr @_ZNKR4absl12lts_2023080218container_internal15CompressedTupleIJNS1_12CommonFieldsENS1_10StringHashENS1_8StringEqESaISt4pairIKSt17basic_string_viewIcSt11char_traitsIcEENSt7__cxx1112basic_stringIcS9_SaIcEEEEEEE3getILi3EEERKNS1_25internal_compressed_tuple4ElemISI_XT_EE4typeEv(ptr noundef nonnull align 8 dereferenceable(32) %settings_)
  ret ptr %call
}

; Function Attrs: mustprogress uwtable
define linkonce_odr hidden void @_ZN4absl12lts_2023080218container_internal12raw_hash_setINS1_17FlatHashMapPolicyISt17basic_string_viewIcSt11char_traitsIcEENSt7__cxx1112basic_stringIcS6_SaIcEEEEENS1_10StringHashENS1_8StringEqESaISt4pairIKS7_SB_EEEC2ERKSJ_(ptr noundef nonnull align 8 dereferenceable(32) %this, ptr noundef nonnull align 8 dereferenceable(32) %that) unnamed_addr #4 comdat align 2 personality ptr @__gxx_personality_v0 {
entry:
  %this.addr = alloca ptr, align 8
  %that.addr = alloca ptr, align 8
  %ref.tmp = alloca %"class.std::allocator.32", align 1
  %exn.slot = alloca ptr, align 8
  %ehselector.slot = alloca i32, align 4
  store ptr %this, ptr %this.addr, align 8
  store ptr %that, ptr %that.addr, align 8
  %this1 = load ptr, ptr %this.addr, align 8
  %0 = load ptr, ptr %that.addr, align 8
  %1 = load ptr, ptr %that.addr, align 8
  %call = call noundef nonnull align 1 dereferenceable(1) ptr @_ZNK4absl12lts_2023080218container_internal12raw_hash_setINS1_17FlatHashMapPolicyISt17basic_string_viewIcSt11char_traitsIcEENSt7__cxx1112basic_stringIcS6_SaIcEEEEENS1_10StringHashENS1_8StringEqESaISt4pairIKS7_SB_EEE9alloc_refEv(ptr noundef nonnull align 8 dereferenceable(32) %1)
  call void @_ZNSt16allocator_traitsISaISt4pairIKSt17basic_string_viewIcSt11char_traitsIcEENSt7__cxx1112basic_stringIcS3_SaIcEEEEEE37select_on_container_copy_constructionERKSB_(ptr sret(%"class.std::allocator.32") align 1 %ref.tmp, ptr noundef nonnull align 1 dereferenceable(1) %call)
  invoke void @_ZN4absl12lts_2023080218container_internal12raw_hash_setINS1_17FlatHashMapPolicyISt17basic_string_viewIcSt11char_traitsIcEENSt7__cxx1112basic_stringIcS6_SaIcEEEEENS1_10StringHashENS1_8StringEqESaISt4pairIKS7_SB_EEEC2ERKSJ_RKSI_(ptr noundef nonnull align 8 dereferenceable(32) %this1, ptr noundef nonnull align 8 dereferenceable(32) %0, ptr noundef nonnull align 1 dereferenceable(1) %ref.tmp)
          to label %invoke.cont unwind label %lpad

invoke.cont:                                      ; preds = %entry
  call void @_ZNSaISt4pairIKSt17basic_string_viewIcSt11char_traitsIcEENSt7__cxx1112basic_stringIcS2_SaIcEEEEED2Ev(ptr noundef nonnull align 1 dereferenceable(1) %ref.tmp) #3
  ret void

lpad:                                             ; preds = %entry
  %2 = landingpad { ptr, i32 }
          cleanup
  %3 = extractvalue { ptr, i32 } %2, 0
  store ptr %3, ptr %exn.slot, align 8
  %4 = extractvalue { ptr, i32 } %2, 1
  store i32 %4, ptr %ehselector.slot, align 4
  call void @_ZNSaISt4pairIKSt17basic_string_viewIcSt11char_traitsIcEENSt7__cxx1112basic_stringIcS2_SaIcEEEEED2Ev(ptr noundef nonnull align 1 dereferenceable(1) %ref.tmp) #3
  br label %eh.resume

eh.resume:                                        ; preds = %lpad
  %exn = load ptr, ptr %exn.slot, align 8
  %sel = load i32, ptr %ehselector.slot, align 4
  %lpad.val = insertvalue { ptr, i32 } poison, ptr %exn, 0
  %lpad.val2 = insertvalue { ptr, i32 } %lpad.val, i32 %sel, 1
  resume { ptr, i32 } %lpad.val2
}

; Function Attrs: noreturn nounwind uwtable
define linkonce_odr hidden void @__clang_call_terminate(ptr noundef %0) #8 comdat {
  %2 = call ptr @__cxa_begin_catch(ptr %0) #3
  call void @_ZSt9terminatev() #21
  unreachable
}

; Function Attrs: mustprogress nounwind uwtable
define linkonce_odr hidden noundef i64 @_ZNSt11char_traitsIcE6lengthEPKc(ptr noundef %__s) #5 comdat align 2 {
entry:
  %__s.addr = alloca ptr, align 8
  store ptr %__s, ptr %__s.addr, align 8
  %0 = load ptr, ptr %__s.addr, align 8
  %call = call i64 @strlen(ptr noundef %0) #3
  ret i64 %call
}

; Function Attrs: mustprogress nounwind uwtable
define linkonce_odr hidden void @_ZN4absl12lts_202308024SpanIKNSt7__cxx1112basic_stringIcSt11char_traitsIcESaIcEEEEC2EPS8_m(ptr noundef nonnull align 8 dereferenceable(16) %this, ptr noundef %array, i64 noundef %length) unnamed_addr #5 comdat align 2 {
entry:
  %this.addr = alloca ptr, align 8
  %array.addr = alloca ptr, align 8
  %length.addr = alloca i64, align 8
  store ptr %this, ptr %this.addr, align 8
  store ptr %array, ptr %array.addr, align 8
  store i64 %length, ptr %length.addr, align 8
  %this1 = load ptr, ptr %this.addr, align 8
  %ptr_ = getelementptr inbounds %"class.absl::lts_20230802::Span", ptr %this1, i32 0, i32 0
  %0 = load ptr, ptr %array.addr, align 8
  store ptr %0, ptr %ptr_, align 8
  %len_ = getelementptr inbounds %"class.absl::lts_20230802::Span", ptr %this1, i32 0, i32 1
  %1 = load i64, ptr %length.addr, align 8
  store i64 %1, ptr %len_, align 8
  ret void
}

; Function Attrs: mustprogress uwtable
define linkonce_odr hidden void @_ZN4absl12lts_2023080218container_internal12raw_hash_mapINS1_17FlatHashMapPolicyISt17basic_string_viewIcSt11char_traitsIcEENSt7__cxx1112basic_stringIcS6_SaIcEEEEENS1_10StringHashENS1_8StringEqESaISt4pairIKS7_SB_EEEC2ERKSJ_(ptr noundef nonnull align 8 dereferenceable(32) %this, ptr noundef nonnull align 8 dereferenceable(32) %0) unnamed_addr #4 comdat align 2 {
entry:
  %this.addr = alloca ptr, align 8
  %.addr = alloca ptr, align 8
  store ptr %this, ptr %this.addr, align 8
  store ptr %0, ptr %.addr, align 8
  %this1 = load ptr, ptr %this.addr, align 8
  %1 = load ptr, ptr %.addr, align 8
  call void @_ZN4absl12lts_2023080218container_internal12raw_hash_setINS1_17FlatHashMapPolicyISt17basic_string_viewIcSt11char_traitsIcEENSt7__cxx1112basic_stringIcS6_SaIcEEEEENS1_10StringHashENS1_8StringEqESaISt4pairIKS7_SB_EEEC2ERKSJ_(ptr noundef nonnull align 8 dereferenceable(32) %this1, ptr noundef nonnull align 8 dereferenceable(32) %1)
  ret void
}

; Function Attrs: mustprogress nounwind uwtable
define linkonce_odr hidden void @_ZNSt17basic_string_viewIcSt11char_traitsIcEEC2EPKc(ptr noundef nonnull align 8 dereferenceable(16) %this, ptr noundef nonnull %__str) unnamed_addr #5 comdat align 2 personality ptr @__gxx_personality_v0 {
entry:
  %this.addr = alloca ptr, align 8
  %__str.addr = alloca ptr, align 8
  store ptr %this, ptr %this.addr, align 8
  store ptr %__str, ptr %__str.addr, align 8
  %this1 = load ptr, ptr %this.addr, align 8
  %_M_len = getelementptr inbounds %"class.std::basic_string_view", ptr %this1, i32 0, i32 0
  %0 = load ptr, ptr %__str.addr, align 8
  %call = invoke noundef i64 @_ZNSt11char_traitsIcE6lengthEPKc(ptr noundef %0)
          to label %invoke.cont unwind label %terminate.lpad

invoke.cont:                                      ; preds = %entry
  store i64 %call, ptr %_M_len, align 8
  %_M_str = getelementptr inbounds %"class.std::basic_string_view", ptr %this1, i32 0, i32 1
  %1 = load ptr, ptr %__str.addr, align 8
  store ptr %1, ptr %_M_str, align 8
  ret void

terminate.lpad:                                   ; preds = %entry
  %2 = landingpad { ptr, i32 }
          catch ptr null
  %3 = extractvalue { ptr, i32 } %2, 0
  call void @__clang_call_terminate(ptr %3) #21
  unreachable
}

; Function Attrs: mustprogress nounwind uwtable
define linkonce_odr hidden void @_ZN4absl12lts_202308024SpanIKNSt7__cxx1112basic_stringIcSt11char_traitsIcESaIcEEEEC2Ev(ptr noundef nonnull align 8 dereferenceable(16) %this) unnamed_addr #5 comdat align 2 {
entry:
  %this.addr = alloca ptr, align 8
  store ptr %this, ptr %this.addr, align 8
  %this1 = load ptr, ptr %this.addr, align 8
  call void @_ZN4absl12lts_202308024SpanIKNSt7__cxx1112basic_stringIcSt11char_traitsIcESaIcEEEEC2EPS8_m(ptr noundef nonnull align 8 dereferenceable(16) %this1, ptr noundef null, i64 noundef 0) #3
  ret void
}

; Function Attrs: mustprogress uwtable
define linkonce_odr hidden void @_ZN4absl12lts_2023080213flat_hash_mapISt17basic_string_viewIcSt11char_traitsIcEENSt7__cxx1112basic_stringIcS4_SaIcEEENS0_18container_internal10StringHashENSA_8StringEqESaISt4pairIKS5_S9_EEEC2ERKSH_(ptr noundef nonnull align 8 dereferenceable(32) %this, ptr noundef nonnull align 8 dereferenceable(32) %0) unnamed_addr #4 comdat align 2 {
entry:
  %this.addr = alloca ptr, align 8
  %.addr = alloca ptr, align 8
  store ptr %this, ptr %this.addr, align 8
  store ptr %0, ptr %.addr, align 8
  %this1 = load ptr, ptr %this.addr, align 8
  %1 = load ptr, ptr %.addr, align 8
  call void @_ZN4absl12lts_2023080218container_internal12raw_hash_mapINS1_17FlatHashMapPolicyISt17basic_string_viewIcSt11char_traitsIcEENSt7__cxx1112basic_stringIcS6_SaIcEEEEENS1_10StringHashENS1_8StringEqESaISt4pairIKS7_SB_EEEC2ERKSJ_(ptr noundef nonnull align 8 dereferenceable(32) %this1, ptr noundef nonnull align 8 dereferenceable(32) %1)
  ret void
}

; Function Attrs: mustprogress uwtable
define linkonce_odr hidden void @_ZNK6google8protobuf8compiler3cpp9FormatterclIJEEEvPKcDpRKT_(ptr noundef nonnull align 8 dereferenceable(40) %this, ptr noundef %format) #4 comdat align 2 {
entry:
  %this.addr = alloca ptr, align 8
  %format.addr = alloca ptr, align 8
  %agg.tmp = alloca %"class.absl::lts_20230802::Span", align 8
  %agg.tmp2 = alloca %"class.std::basic_string_view", align 8
  store ptr %this, ptr %this.addr, align 8
  store ptr %format, ptr %format.addr, align 8
  %this1 = load ptr, ptr %this.addr, align 8
  %printer_ = getelementptr inbounds %"class.google::protobuf::compiler::cpp::Formatter", ptr %this1, i32 0, i32 0
  %0 = load ptr, ptr %printer_, align 8
  call void @_ZN4absl12lts_202308024SpanIKNSt7__cxx1112basic_stringIcSt11char_traitsIcESaIcEEEEC2Ev(ptr noundef nonnull align 8 dereferenceable(16) %agg.tmp) #3
  %vars_ = getelementptr inbounds %"class.google::protobuf::compiler::cpp::Formatter", ptr %this1, i32 0, i32 1
  %1 = load ptr, ptr %format.addr, align 8
  call void @_ZNSt17basic_string_viewIcSt11char_traitsIcEEC2EPKc(ptr noundef nonnull align 8 dereferenceable(16) %agg.tmp2, ptr noundef %1) #3
  %2 = getelementptr inbounds { ptr, i64 }, ptr %agg.tmp, i32 0, i32 0
  %3 = load ptr, ptr %2, align 8
  %4 = getelementptr inbounds { ptr, i64 }, ptr %agg.tmp, i32 0, i32 1
  %5 = load i64, ptr %4, align 8
  %6 = getelementptr inbounds { i64, ptr }, ptr %agg.tmp2, i32 0, i32 0
  %7 = load i64, ptr %6, align 8
  %8 = getelementptr inbounds { i64, ptr }, ptr %agg.tmp2, i32 0, i32 1
  %9 = load ptr, ptr %8, align 8
  call void @_ZN6google8protobuf2io7Printer14FormatInternalIN4absl12lts_2023080213flat_hash_mapISt17basic_string_viewIcSt11char_traitsIcEENSt7__cxx1112basic_stringIcS9_SaIcEEENS5_18container_internal10StringHashENSF_8StringEqESaISt4pairIKSA_SE_EEEEEEvNS5_4SpanIKSE_EERKT_SA_(ptr noundef nonnull align 8 dereferenceable(256) %0, ptr %3, i64 %5, ptr noundef nonnull align 8 dereferenceable(32) %vars_, i64 %7, ptr %9)
  ret void
}

; Function Attrs: mustprogress uwtable
define linkonce_odr hidden void @_ZN6google8protobuf8compiler3cpp9FormatterC2EPNS0_2io7PrinterERKN4absl12lts_2023080213flat_hash_mapISt17basic_string_viewIcSt11char_traitsIcEENSt7__cxx1112basic_stringIcSC_SaIcEEENS8_18container_internal10StringHashENSI_8StringEqESaISt4pairIKSD_SH_EEEE(ptr noundef nonnull align 8 dereferenceable(40) %this, ptr noundef %printer, ptr noundef nonnull align 8 dereferenceable(32) %vars) unnamed_addr #4 comdat align 2 {
entry:
  %this.addr = alloca ptr, align 8
  %printer.addr = alloca ptr, align 8
  %vars.addr = alloca ptr, align 8
  store ptr %this, ptr %this.addr, align 8
  store ptr %printer, ptr %printer.addr, align 8
  store ptr %vars, ptr %vars.addr, align 8
  %this1 = load ptr, ptr %this.addr, align 8
  %printer_ = getelementptr inbounds %"class.google::protobuf::compiler::cpp::Formatter", ptr %this1, i32 0, i32 0
  %0 = load ptr, ptr %printer.addr, align 8
  store ptr %0, ptr %printer_, align 8
  %vars_ = getelementptr inbounds %"class.google::protobuf::compiler::cpp::Formatter", ptr %this1, i32 0, i32 1
  %1 = load ptr, ptr %vars.addr, align 8
  call void @_ZN4absl12lts_2023080213flat_hash_mapISt17basic_string_viewIcSt11char_traitsIcEENSt7__cxx1112basic_stringIcS4_SaIcEEENS0_18container_internal10StringHashENSA_8StringEqESaISt4pairIKS5_S9_EEEC2ERKSH_(ptr noundef nonnull align 8 dereferenceable(32) %vars_, ptr noundef nonnull align 8 dereferenceable(32) %1)
  ret void
}

; Function Attrs: mustprogress uwtable
define internal void @_ZNK6google8protobuf8compiler3cpp12_GLOBAL__N_118CordFieldGenerator19GenerateMergingCodeEPNS0_2io7PrinterE(ptr noundef nonnull align 8 dereferenceable(85) %this, ptr noundef %printer) unnamed_addr #4 align 2 personality ptr @__gxx_personality_v0 {
entry:
  %this.addr = alloca ptr, align 8
  %printer.addr = alloca ptr, align 8
  %format = alloca %"class.google::protobuf::compiler::cpp::Formatter", align 8
  %exn.slot = alloca ptr, align 8
  %ehselector.slot = alloca i32, align 4
  store ptr %this, ptr %this.addr, align 8
  store ptr %printer, ptr %printer.addr, align 8
  %this1 = load ptr, ptr %this.addr, align 8
  %0 = load ptr, ptr %printer.addr, align 8
  %variables_ = getelementptr inbounds %"class.google::protobuf::compiler::cpp::FieldGeneratorBase", ptr %this1, i32 0, i32 4
  call void @_ZN6google8protobuf8compiler3cpp9FormatterC2EPNS0_2io7PrinterERKN4absl12lts_2023080213flat_hash_mapISt17basic_string_viewIcSt11char_traitsIcEENSt7__cxx1112basic_stringIcSC_SaIcEEENS8_18container_internal10StringHashENSI_8StringEqESaISt4pairIKSD_SH_EEEE(ptr noundef nonnull align 8 dereferenceable(40) %format, ptr noundef %0, ptr noundef nonnull align 8 dereferenceable(32) %variables_)
  invoke void @_ZNK6google8protobuf8compiler3cpp9FormatterclIJEEEvPKcDpRKT_(ptr noundef nonnull align 8 dereferenceable(40) %format, ptr noundef @.str.36)
          to label %invoke.cont unwind label %lpad

invoke.cont:                                      ; preds = %entry
  call void @_ZN6google8protobuf8compiler3cpp9FormatterD2Ev(ptr noundef nonnull align 8 dereferenceable(40) %format) #3
  ret void

lpad:                                             ; preds = %entry
  %1 = landingpad { ptr, i32 }
          cleanup
  %2 = extractvalue { ptr, i32 } %1, 0
  store ptr %2, ptr %exn.slot, align 8
  %3 = extractvalue { ptr, i32 } %1, 1
  store i32 %3, ptr %ehselector.slot, align 4
  call void @_ZN6google8protobuf8compiler3cpp9FormatterD2Ev(ptr noundef nonnull align 8 dereferenceable(40) %format) #3
  br label %eh.resume

eh.resume:                                        ; preds = %lpad
  %exn = load ptr, ptr %exn.slot, align 8
  %sel = load i32, ptr %ehselector.slot, align 4
  %lpad.val = insertvalue { ptr, i32 } poison, ptr %exn, 0
  %lpad.val2 = insertvalue { ptr, i32 } %lpad.val, i32 %sel, 1
  resume { ptr, i32 } %lpad.val2
}