; Function Attrs: mustprogress uwtable
define internal void @_ZNK6google8protobuf8compiler3cpp12_GLOBAL__N_118CordFieldGenerator19GenerateMergingCodeEPNS0_2io7PrinterE(ptr noundef nonnull align 8 dereferenceable(85) %this, ptr noundef %printer) unnamed_addr #3 align 2 personality ptr @__gxx_personality_v0 {
entry:
  %ref.tmp.i.i.i.i = alloca %"class.std::allocator.32", align 1
  %format = alloca %"class.google::protobuf::compiler::cpp::Formatter", align 8
  %variables_ = getelementptr inbounds i8, ptr %this, i64 32
  store ptr %printer, ptr %format, align 8
  %vars_.i = getelementptr inbounds i8, ptr %format, i64 8
  call void @llvm.lifetime.start.p0(i64 1, ptr nonnull %ref.tmp.i.i.i.i)
  call void @_ZN4absl12lts_2023080218container_internal12raw_hash_setINS1_17FlatHashMapPolicyISt17basic_string_viewIcSt11char_traitsIcEENSt7__cxx1112basic_stringIcS6_SaIcEEEEENS1_10StringHashENS1_8StringEqESaISt4pairIKS7_SB_EEEC2ERKSJ_RKSI_(ptr noundef nonnull align 8 dereferenceable(32) %vars_.i, ptr noundef nonnull align 8 dereferenceable(32) %variables_, ptr noundef nonnull align 1 dereferenceable(1) %ref.tmp.i.i.i.i)
  call void @llvm.lifetime.end.p0(i64 1, ptr nonnull %ref.tmp.i.i.i.i)
  %0 = load ptr, ptr %format, align 8
  invoke void @_ZN6google8protobuf2io7Printer14FormatInternalIN4absl12lts_2023080213flat_hash_mapISt17basic_string_viewIcSt11char_traitsIcEENSt7__cxx1112basic_stringIcS9_SaIcEEENS5_18container_internal10StringHashENSF_8StringEqESaISt4pairIKSA_SE_EEEEEEvNS5_4SpanIKSE_EERKT_SA_(ptr noundef nonnull align 8 dereferenceable(256) %0, ptr null, i64 0, ptr noundef nonnull align 8 dereferenceable(32) %vars_.i, i64 54, ptr nonnull @.str.36)
          to label %invoke.cont unwind label %lpad

invoke.cont:                                      ; preds = %entry
  %capacity_.i.i.i.i.i.i = getelementptr inbounds i8, ptr %format, i64 24
  %1 = load i64, ptr %capacity_.i.i.i.i.i.i, align 8
  %tobool.not.i.i.i.i = icmp eq i64 %1, 0
  br i1 %tobool.not.i.i.i.i, label %_ZN6google8protobuf8compiler3cpp9FormatterD2Ev.exit, label %if.end.i.i.i.i

if.end.i.i.i.i:                                   ; preds = %invoke.cont
  %2 = load ptr, ptr %vars_.i, align 8
  %slots_.i.i.i.i.i.i.i = getelementptr inbounds i8, ptr %format, i64 16
  %3 = load ptr, ptr %slots_.i.i.i.i.i.i.i, align 8
  br label %for.body.i.i.i.i.i

for.body.i.i.i.i.i:                               ; preds = %for.inc.i.i.i.i.i, %if.end.i.i.i.i
  %i.05.i.i.i.i.i = phi i64 [ %inc.i.i.i.i.i, %for.inc.i.i.i.i.i ], [ 0, %if.end.i.i.i.i ]
  %arrayidx.i.i.i.i.i = getelementptr inbounds i8, ptr %2, i64 %i.05.i.i.i.i.i
  %4 = load i8, ptr %arrayidx.i.i.i.i.i, align 1
  %cmp.i.i.i.i.i.i = icmp sgt i8 %4, -1
  br i1 %cmp.i.i.i.i.i.i, label %if.then.i.i.i.i.i, label %for.inc.i.i.i.i.i

if.then.i.i.i.i.i:                                ; preds = %for.body.i.i.i.i.i
  %second.i.i.i.i.i.i.i.i.i.i.i = getelementptr inbounds %"union.absl::lts_20230802::container_internal::map_slot_type", ptr %3, i64 %i.05.i.i.i.i.i, i32 0, i32 1
  call void @_ZNSt7__cxx1112basic_stringIcSt11char_traitsIcESaIcEED1Ev(ptr noundef nonnull align 8 dereferenceable(32) %second.i.i.i.i.i.i.i.i.i.i.i) #26
  br label %for.inc.i.i.i.i.i

for.inc.i.i.i.i.i:                                ; preds = %if.then.i.i.i.i.i, %for.body.i.i.i.i.i
  %inc.i.i.i.i.i = add nuw i64 %i.05.i.i.i.i.i, 1
  %cmp.not.i.i.i.i.i = icmp eq i64 %inc.i.i.i.i.i, %1
  br i1 %cmp.not.i.i.i.i.i, label %invoke.cont13.i.i.i.i, label %for.body.i.i.i.i.i, !llvm.loop !46

invoke.cont13.i.i.i.i:                            ; preds = %for.inc.i.i.i.i.i
  %5 = load ptr, ptr %vars_.i, align 8
  %add.ptr.i.i.i.i.i = getelementptr inbounds i8, ptr %5, i64 -8
  call void @_ZdlPv(ptr noundef nonnull %add.ptr.i.i.i.i.i) #25
  br label %_ZN6google8protobuf8compiler3cpp9FormatterD2Ev.exit

_ZN6google8protobuf8compiler3cpp9FormatterD2Ev.exit: ; preds = %invoke.cont, %invoke.cont13.i.i.i.i
  ret void

lpad:                                             ; preds = %entry
  %6 = landingpad { ptr, i32 }
          cleanup
  call void @_ZN6google8protobuf8compiler3cpp9FormatterD2Ev(ptr noundef nonnull align 8 dereferenceable(40) %format) #26
  resume { ptr, i32 } %6
}